; ModuleID = '19/1482.c'
source_filename = "19/1482.c"
target datalayout = "e-m:e-p270:32:32-p271:32:32-p272:64:64-i64:64-f80:128-n8:16:32:64-S128"
target triple = "x86_64-pc-linux-gnu"

@.str = private unnamed_addr constant [3 x i8] c"%s\00", align 1
@.str.1 = private unnamed_addr constant [4 x i8] c"%s \00", align 1

; Function Attrs: noinline nounwind uwtable
define dso_local i32 @main() #0 {
  %1 = alloca i32, align 4
  %2 = alloca [100 x i8], align 16
  %3 = alloca [100 x i8], align 16
  %4 = alloca [100 x i8], align 16
  %5 = alloca [50 x [100 x i8]], align 16
  %6 = alloca i32, align 4
  %7 = alloca i32, align 4
  %8 = alloca i32, align 4
  %9 = alloca i32, align 4
  %10 = alloca i32, align 4
  %11 = alloca i32, align 4
  %12 = alloca i32, align 4
  %13 = alloca [100 x i32], align 16
  store i32 0, i32* %1, align 4
  store i32 0, i32* %8, align 4
  store i32 0, i32* %9, align 4
  %14 = getelementptr inbounds [100 x i8], [100 x i8]* %2, i64 0, i64 0
  %15 = call i32 (i8*, ...) bitcast (i32 (...)* @gets to i32 (i8*, ...)*)(i8* %14)
  %16 = getelementptr inbounds [100 x i8], [100 x i8]* %3, i64 0, i64 0
  %17 = call i32 (i8*, ...) @__isoc99_scanf(i8* getelementptr inbounds ([3 x i8], [3 x i8]* @.str, i64 0, i64 0), i8* %16)
  %18 = getelementptr inbounds [100 x i8], [100 x i8]* %4, i64 0, i64 0
  %19 = call i32 (i8*, ...) @__isoc99_scanf(i8* getelementptr inbounds ([3 x i8], [3 x i8]* @.str, i64 0, i64 0), i8* %18)
  store i32 0, i32* %7, align 4
  br label %20

20:                                               ; preds = %76, %0
  %21 = load i32, i32* %7, align 4
  %22 = sext i32 %21 to i64
  %23 = getelementptr inbounds [100 x i8], [100 x i8]* %2, i64 0, i64 %22
  %24 = load i8, i8* %23, align 1
  %25 = sext i8 %24 to i32
  %26 = icmp ne i32 %25, 0
  br i1 %26, label %27, label %79

27:                                               ; preds = %20
  %28 = load i32, i32* %7, align 4
  %29 = sext i32 %28 to i64
  %30 = getelementptr inbounds [100 x i8], [100 x i8]* %2, i64 0, i64 %29
  %31 = load i8, i8* %30, align 1
  %32 = sext i8 %31 to i32
  %33 = icmp ne i32 %32, 32
  br i1 %33, label %34, label %47

34:                                               ; preds = %27
  %35 = load i32, i32* %7, align 4
  %36 = sext i32 %35 to i64
  %37 = getelementptr inbounds [100 x i8], [100 x i8]* %2, i64 0, i64 %36
  %38 = load i8, i8* %37, align 1
  %39 = load i32, i32* %8, align 4
  %40 = sext i32 %39 to i64
  %41 = getelementptr inbounds [50 x [100 x i8]], [50 x [100 x i8]]* %5, i64 0, i64 %40
  %42 = load i32, i32* %9, align 4
  %43 = sext i32 %42 to i64
  %44 = getelementptr inbounds [100 x i8], [100 x i8]* %41, i64 0, i64 %43
  store i8 %38, i8* %44, align 1
  %45 = load i32, i32* %9, align 4
  %46 = add nsw i32 %45, 1
  store i32 %46, i32* %9, align 4
  br label %47

47:                                               ; preds = %34, %27
  %48 = load i32, i32* %7, align 4
  %49 = sext i32 %48 to i64
  %50 = getelementptr inbounds [100 x i8], [100 x i8]* %2, i64 0, i64 %49
  %51 = load i8, i8* %50, align 1
  %52 = sext i8 %51 to i32
  %53 = icmp eq i32 %52, 32
  br i1 %53, label %54, label %75

54:                                               ; preds = %47
  %55 = load i32, i32* %7, align 4
  %56 = add nsw i32 %55, 1
  %57 = sext i32 %56 to i64
  %58 = getelementptr inbounds [100 x i8], [100 x i8]* %2, i64 0, i64 %57
  %59 = load i8, i8* %58, align 1
  %60 = sext i8 %59 to i32
  %61 = icmp ne i32 %60, 32
  br i1 %61, label %62, label %75

62:                                               ; preds = %54
  %63 = load i32, i32* %7, align 4
  %64 = load i32, i32* %8, align 4
  %65 = sext i32 %64 to i64
  %66 = getelementptr inbounds [100 x i32], [100 x i32]* %13, i64 0, i64 %65
  store i32 %63, i32* %66, align 4
  %67 = load i32, i32* %8, align 4
  %68 = sext i32 %67 to i64
  %69 = getelementptr inbounds [50 x [100 x i8]], [50 x [100 x i8]]* %5, i64 0, i64 %68
  %70 = load i32, i32* %9, align 4
  %71 = sext i32 %70 to i64
  %72 = getelementptr inbounds [100 x i8], [100 x i8]* %69, i64 0, i64 %71
  store i8 0, i8* %72, align 1
  %73 = load i32, i32* %8, align 4
  %74 = add nsw i32 %73, 1
  store i32 %74, i32* %8, align 4
  store i32 0, i32* %9, align 4
  br label %75

75:                                               ; preds = %62, %54, %47
  br label %76

76:                                               ; preds = %75
  %77 = load i32, i32* %7, align 4
  %78 = add nsw i32 %77, 1
  store i32 %78, i32* %7, align 4
  br label %20

79:                                               ; preds = %20
  %80 = getelementptr inbounds [100 x i8], [100 x i8]* %2, i64 0, i64 0
  %81 = call i64 @strlen(i8* %80) #4
  %82 = load i32, i32* %8, align 4
  %83 = sub nsw i32 %82, 1
  %84 = sext i32 %83 to i64
  %85 = getelementptr inbounds [100 x i32], [100 x i32]* %13, i64 0, i64 %84
  %86 = load i32, i32* %85, align 4
  %87 = sext i32 %86 to i64
  %88 = sub i64 %81, %87
  %89 = trunc i64 %88 to i32
  store i32 %89, i32* %12, align 4
  %90 = load i32, i32* %8, align 4
  %91 = sext i32 %90 to i64
  %92 = getelementptr inbounds [50 x [100 x i8]], [50 x [100 x i8]]* %5, i64 0, i64 %91
  %93 = load i32, i32* %12, align 4
  %94 = sub nsw i32 %93, 1
  %95 = sext i32 %94 to i64
  %96 = getelementptr inbounds [100 x i8], [100 x i8]* %92, i64 0, i64 %95
  store i8 0, i8* %96, align 1
  store i32 0, i32* %7, align 4
  br label %97

97:                                               ; preds = %117, %79
  %98 = load i32, i32* %7, align 4
  %99 = load i32, i32* %8, align 4
  %100 = icmp sle i32 %98, %99
  br i1 %100, label %101, label %120

101:                                              ; preds = %97
  %102 = getelementptr inbounds [100 x i8], [100 x i8]* %3, i64 0, i64 0
  %103 = load i32, i32* %7, align 4
  %104 = sext i32 %103 to i64
  %105 = getelementptr inbounds [50 x [100 x i8]], [50 x [100 x i8]]* %5, i64 0, i64 %104
  %106 = getelementptr inbounds [100 x i8], [100 x i8]* %105, i64 0, i64 0
  %107 = call i32 @strcmp(i8* %102, i8* %106) #4
  %108 = icmp eq i32 %107, 0
  br i1 %108, label %109, label %116

109:                                              ; preds = %101
  %110 = load i32, i32* %7, align 4
  %111 = sext i32 %110 to i64
  %112 = getelementptr inbounds [50 x [100 x i8]], [50 x [100 x i8]]* %5, i64 0, i64 %111
  %113 = getelementptr inbounds [100 x i8], [100 x i8]* %112, i64 0, i64 0
  %114 = getelementptr inbounds [100 x i8], [100 x i8]* %4, i64 0, i64 0
  %115 = call i8* @strcpy(i8* %113, i8* %114) #5
  br label %116

116:                                              ; preds = %109, %101
  br label %117

117:                                              ; preds = %116
  %118 = load i32, i32* %7, align 4
  %119 = add nsw i32 %118, 1
  store i32 %119, i32* %7, align 4
  br label %97

120:                                              ; preds = %97
  store i32 0, i32* %7, align 4
  br label %121

121:                                              ; preds = %131, %120
  %122 = load i32, i32* %7, align 4
  %123 = load i32, i32* %8, align 4
  %124 = icmp slt i32 %122, %123
  br i1 %124, label %125, label %134

125:                                              ; preds = %121
  %126 = load i32, i32* %7, align 4
  %127 = sext i32 %126 to i64
  %128 = getelementptr inbounds [50 x [100 x i8]], [50 x [100 x i8]]* %5, i64 0, i64 %127
  %129 = getelementptr inbounds [100 x i8], [100 x i8]* %128, i64 0, i64 0
  %130 = call i32 (i8*, ...) @printf(i8* getelementptr inbounds ([4 x i8], [4 x i8]* @.str.1, i64 0, i64 0), i8* %129)
  br label %131

131:                                              ; preds = %125
  %132 = load i32, i32* %7, align 4
  %133 = add nsw i32 %132, 1
  store i32 %133, i32* %7, align 4
  br label %121

134:                                              ; preds = %121
  %135 = load i32, i32* %8, align 4
  %136 = sext i32 %135 to i64
  %137 = getelementptr inbounds [50 x [100 x i8]], [50 x [100 x i8]]* %5, i64 0, i64 %136
  %138 = getelementptr inbounds [100 x i8], [100 x i8]* %137, i64 0, i64 0
  %139 = call i32 (i8*, ...) @printf(i8* getelementptr inbounds ([3 x i8], [3 x i8]* @.str, i64 0, i64 0), i8* %138)
  ret i32 0
}

declare dso_local i32 @gets(...) #1

declare dso_local i32 @__isoc99_scanf(i8*, ...) #1

; Function Attrs: nounwind readonly
declare dso_local i64 @strlen(i8*) #2

; Function Attrs: nounwind readonly
declare dso_local i32 @strcmp(i8*, i8*) #2

; Function Attrs: nounwind
declare dso_local i8* @strcpy(i8*, i8*) #3

declare dso_local i32 @printf(i8*, ...) #1


!llvm.module.flags = !{!0}
!llvm.ident = !{!1}

!0 = !{i32 1, !"wchar_size", i32 4}
!1 = !{!"clang version 10.0.0-4ubuntu1 "}
