; ModuleID = 'source-C-CXX/18/1482.c'
source_filename = "source-C-CXX/18/1482.c"
target datalayout = "e-m:e-p270:32:32-p271:32:32-p272:64:64-i64:64-f80:128-n8:16:32:64-S128"
target triple = "x86_64-pc-linux-gnu"

@.str = private unnamed_addr constant [3 x i8] c"%s\00", align 1
@.str.1 = private unnamed_addr constant [4 x i8] c"%s \00", align 1

; Function Attrs: nounwind sspstrong uwtable
define dso_local i32 @main() local_unnamed_addr #0 {
  %1 = alloca [100 x i8], align 16
  %2 = alloca [100 x i8], align 16
  %3 = alloca [100 x i8], align 16
  %4 = alloca [50 x [100 x i8]], align 16
  %5 = alloca [100 x i32], align 16
  %6 = getelementptr inbounds [100 x i8], [100 x i8]* %1, i64 0, i64 0
  call void @llvm.lifetime.start.p0i8(i64 100, i8* nonnull %6) #6
  %7 = getelementptr inbounds [100 x i8], [100 x i8]* %2, i64 0, i64 0
  call void @llvm.lifetime.start.p0i8(i64 100, i8* nonnull %7) #6
  %8 = getelementptr inbounds [100 x i8], [100 x i8]* %3, i64 0, i64 0
  call void @llvm.lifetime.start.p0i8(i64 100, i8* nonnull %8) #6
  %9 = getelementptr inbounds [50 x [100 x i8]], [50 x [100 x i8]]* %4, i64 0, i64 0, i64 0
  call void @llvm.lifetime.start.p0i8(i64 5000, i8* nonnull %9) #6
  %10 = bitcast [100 x i32]* %5 to i8*
  call void @llvm.lifetime.start.p0i8(i64 400, i8* nonnull %10) #6
  %11 = call i32 (i8*, ...) bitcast (i32 (...)* @gets to i32 (i8*, ...)*)(i8* nonnull %6) #6
  %12 = call i32 (i8*, ...) @__isoc99_scanf(i8* getelementptr inbounds ([3 x i8], [3 x i8]* @.str, i64 0, i64 0), i8* nonnull %7)
  %13 = call i32 (i8*, ...) @__isoc99_scanf(i8* getelementptr inbounds ([3 x i8], [3 x i8]* @.str, i64 0, i64 0), i8* nonnull %8)
  br label %14

14:                                               ; preds = %0, %35
  %15 = phi i64 [ 0, %0 ], [ %31, %35 ]
  %16 = phi i32 [ 0, %0 ], [ %41, %35 ]
  %17 = zext i32 %16 to i64
  br label %18

18:                                               ; preds = %14, %25
  %19 = phi i64 [ %29, %25 ], [ %15, %14 ]
  %20 = phi i32 [ %28, %25 ], [ 0, %14 ]
  br label %21

21:                                               ; preds = %18, %30
  %22 = phi i64 [ %31, %30 ], [ %19, %18 ]
  %23 = getelementptr inbounds [100 x i8], [100 x i8]* %1, i64 0, i64 %22
  %24 = load i8, i8* %23, align 1, !tbaa !5
  switch i8 %24, label %25 [
    i8 0, label %42
    i8 32, label %30
  ]

25:                                               ; preds = %21
  %26 = zext i32 %20 to i64
  %27 = getelementptr inbounds [50 x [100 x i8]], [50 x [100 x i8]]* %4, i64 0, i64 %17, i64 %26
  store i8 %24, i8* %27, align 1, !tbaa !5
  %28 = add nuw nsw i32 %20, 1
  %29 = add nuw i64 %22, 1
  br label %18, !llvm.loop !8

30:                                               ; preds = %21
  %31 = add nuw i64 %22, 1
  %32 = getelementptr inbounds [100 x i8], [100 x i8]* %1, i64 0, i64 %31
  %33 = load i8, i8* %32, align 1, !tbaa !5
  %34 = icmp eq i8 %33, 32
  br i1 %34, label %21, label %35, !llvm.loop !8

35:                                               ; preds = %30
  %36 = zext i32 %16 to i64
  %37 = getelementptr inbounds [100 x i32], [100 x i32]* %5, i64 0, i64 %36
  %38 = trunc i64 %22 to i32
  store i32 %38, i32* %37, align 4, !tbaa !10
  %39 = zext i32 %20 to i64
  %40 = getelementptr inbounds [50 x [100 x i8]], [50 x [100 x i8]]* %4, i64 0, i64 %36, i64 %39
  store i8 0, i8* %40, align 1, !tbaa !5
  %41 = add nuw nsw i32 %16, 1
  br label %14, !llvm.loop !8

42:                                               ; preds = %21
  %43 = call i64 @strlen(i8* noundef nonnull %6) #7
  %44 = add nsw i32 %16, -1
  %45 = sext i32 %44 to i64
  %46 = getelementptr inbounds [100 x i32], [100 x i32]* %5, i64 0, i64 %45
  %47 = load i32, i32* %46, align 4, !tbaa !10
  %48 = trunc i64 %43 to i32
  %49 = zext i32 %16 to i64
  %50 = xor i32 %47, -1
  %51 = add i32 %50, %48
  %52 = sext i32 %51 to i64
  %53 = getelementptr inbounds [50 x [100 x i8]], [50 x [100 x i8]]* %4, i64 0, i64 %49, i64 %52
  store i8 0, i8* %53, align 1, !tbaa !5
  %54 = add nuw i32 %16, 1
  %55 = zext i32 %54 to i64
  br label %60

56:                                               ; preds = %67
  %57 = icmp eq i32 %16, 0
  br i1 %57, label %76, label %58

58:                                               ; preds = %56
  %59 = zext i32 %16 to i64
  br label %70

60:                                               ; preds = %42, %67
  %61 = phi i64 [ 0, %42 ], [ %68, %67 ]
  %62 = getelementptr inbounds [50 x [100 x i8]], [50 x [100 x i8]]* %4, i64 0, i64 %61, i64 0
  %63 = call i32 @strcmp(i8* noundef nonnull %7, i8* noundef nonnull %62) #7
  %64 = icmp eq i32 %63, 0
  br i1 %64, label %65, label %67

65:                                               ; preds = %60
  %66 = call i8* @strcpy(i8* noundef nonnull %62, i8* noundef nonnull %8) #6
  br label %67

67:                                               ; preds = %60, %65
  %68 = add nuw nsw i64 %61, 1
  %69 = icmp eq i64 %68, %55
  br i1 %69, label %56, label %60, !llvm.loop !12

70:                                               ; preds = %58, %70
  %71 = phi i64 [ 0, %58 ], [ %74, %70 ]
  %72 = getelementptr inbounds [50 x [100 x i8]], [50 x [100 x i8]]* %4, i64 0, i64 %71, i64 0
  %73 = call i32 (i8*, ...) @printf(i8* nonnull dereferenceable(1) getelementptr inbounds ([4 x i8], [4 x i8]* @.str.1, i64 0, i64 0), i8* nonnull %72)
  %74 = add nuw nsw i64 %71, 1
  %75 = icmp eq i64 %74, %59
  br i1 %75, label %76, label %70, !llvm.loop !13

76:                                               ; preds = %70, %56
  %77 = getelementptr inbounds [50 x [100 x i8]], [50 x [100 x i8]]* %4, i64 0, i64 %49, i64 0
  %78 = call i32 (i8*, ...) @printf(i8* nonnull dereferenceable(1) getelementptr inbounds ([3 x i8], [3 x i8]* @.str, i64 0, i64 0), i8* nonnull %77)
  call void @llvm.lifetime.end.p0i8(i64 400, i8* nonnull %10) #6
  call void @llvm.lifetime.end.p0i8(i64 5000, i8* nonnull %9) #6
  call void @llvm.lifetime.end.p0i8(i64 100, i8* nonnull %8) #6
  call void @llvm.lifetime.end.p0i8(i64 100, i8* nonnull %7) #6
  call void @llvm.lifetime.end.p0i8(i64 100, i8* nonnull %6) #6
  ret i32 0
}

; Function Attrs: argmemonly mustprogress nofree nosync nounwind willreturn
declare void @llvm.lifetime.start.p0i8(i64 immarg, i8* nocapture) #1

declare i32 @gets(...) local_unnamed_addr #2

; Function Attrs: nofree nounwind
declare noundef i32 @__isoc99_scanf(i8* nocapture noundef readonly, ...) local_unnamed_addr #3

; Function Attrs: argmemonly mustprogress nofree nounwind readonly willreturn
declare i64 @strlen(i8* nocapture) local_unnamed_addr #4

; Function Attrs: argmemonly mustprogress nofree nounwind readonly willreturn
declare i32 @strcmp(i8* nocapture, i8* nocapture) local_unnamed_addr #4

; Function Attrs: argmemonly mustprogress nofree nounwind willreturn
declare i8* @strcpy(i8* noalias returned writeonly, i8* noalias nocapture readonly) local_unnamed_addr #5

; Function Attrs: nofree nounwind
declare noundef i32 @printf(i8* nocapture noundef readonly, ...) local_unnamed_addr #3

; Function Attrs: argmemonly mustprogress nofree nosync nounwind willreturn
declare void @llvm.lifetime.end.p0i8(i64 immarg, i8* nocapture) #1


!llvm.module.flags = !{!0, !1, !2, !3}
!llvm.ident = !{!4}

!0 = !{i32 1, !"wchar_size", i32 4}
!1 = !{i32 7, !"PIC Level", i32 2}
!2 = !{i32 7, !"PIE Level", i32 2}
!3 = !{i32 7, !"uwtable", i32 1}
!4 = !{!"clang version 13.0.0"}
!5 = !{!6, !6, i64 0}
!6 = !{!"omnipotent char", !7, i64 0}
!7 = !{!"Simple C/C++ TBAA"}
!8 = distinct !{!8, !9}
!9 = !{!"llvm.loop.mustprogress"}
!10 = !{!11, !11, i64 0}
!11 = !{!"int", !6, i64 0}
!12 = distinct !{!12, !9}
!13 = distinct !{!13, !9}
